Certificate:
    Data:
        Version: 1 (0x0)
        Serial Number: 2 (0x2)
    Signature Algorithm: sha256WithRSAEncryption
        Issuer: C=US, ST=CA, L=Sunnyvale, O=Real Time Innovations, CN=CA Cert World/emailAddress=secure@rti.com
        Validity
            Not Before: Nov 10 14:38:05 2022 GMT
            Not After : Nov 10 14:38:05 2023 GMT
        Subject: C=US, ST=MA, O=Real Time Innovations, CN=triwriter/emailAddress=triwriter@rti.com
        Subject Public Key Info:
            Public Key Algorithm: rsaEncryption
                Public-Key: (2048 bit)
                Modulus:
                    00:d5:bc:21:07:ea:c5:1d:26:10:6b:52:fe:35:8c:
                    17:a1:56:75:94:4a:95:e6:9b:79:f9:ed:db:08:9a:
                    c4:52:90:9b:74:e4:74:94:9a:86:01:e5:25:e2:91:
                    76:14:94:bc:7d:c2:0e:ec:ef:fb:a5:4a:93:8a:c4:
                    7f:f3:52:bf:6d:72:76:9f:06:29:17:18:54:a4:00:
                    17:a7:ad:94:86:67:36:13:ad:6f:71:2c:88:f9:22:
                    af:c8:b1:28:90:f5:13:c1:2c:71:4e:b1:9a:f7:fa:
                    1f:14:0d:a5:17:cf:fe:63:61:09:2d:74:8a:ae:06:
                    34:6b:30:9b:06:b3:8c:01:27:f0:d6:8c:ce:b7:cd:
                    69:b6:54:7f:84:a9:90:91:29:5c:0b:3a:f2:b4:80:
                    2b:6a:80:37:49:71:03:11:18:6c:39:c5:79:ab:54:
                    bb:0f:05:26:1c:ee:e4:74:ed:6c:0c:ed:66:8f:4f:
                    3d:11:e9:a4:98:fc:5d:55:be:31:c3:88:bd:31:24:
                    7f:54:dd:7b:20:3f:f7:91:e5:34:7c:cc:7d:8b:54:
                    39:22:91:03:b8:07:ee:7e:64:dc:3d:d7:ea:e3:8a:
                    44:b1:b6:03:6f:0c:67:be:0a:a1:14:71:64:9d:55:
                    d3:81:6a:85:05:d8:a1:68:27:ff:16:9e:dc:f5:fa:
                    f7:cf
                Exponent: 65537 (0x10001)
    Signature Algorithm: sha256WithRSAEncryption
         86:82:bd:3f:34:ce:cc:8d:98:21:f5:16:e7:58:7a:41:cf:06:
         aa:f4:d6:9f:0c:36:80:a3:a8:45:fb:e5:58:1b:5e:40:a3:b7:
         8d:c5:23:3d:71:4e:79:f0:3a:1d:23:c8:78:2b:90:ab:75:31:
         2f:5f:74:7a:c8:99:9b:ac:c7:ce:cf:4f:9f:40:0b:33:ee:c7:
         4a:02:57:e2:9e:d9:e8:46:39:c4:75:15:5c:8a:dd:37:b0:ae:
         fc:4d:2e:cb:18:4e:0b:6a:44:e2:b3:33:9d:00:1e:d8:10:69:
         e0:3c:83:aa:a6:0a:1e:6c:17:bd:f7:46:bf:20:e9:bf:a9:38:
         0a:5c:a6:e5:2c:8c:6a:6e:3f:c6:c0:e7:e6:26:de:5d:63:e1:
         e5:9b:07:b3:94:d0:be:30:72:a6:c8:85:26:07:cc:4b:7a:e3:
         87:4d:5d:2c:34:4c:d6:e4:e9:62:d8:a3:88:71:b9:5f:b0:f1:
         16:70:a9:13:24:9a:f2:b5:de:dd:c9:1e:f6:62:f8:e7:9c:a5:
         bc:f0:5f:12:38:2a:7b:fb:fe:88:d3:ac:44:fe:c5:1f:b9:32:
         b9:a6:70:90:fc:6e:2b:d6:a0:5b:8d:52:33:2c:a7:5a:ae:ad:
         0e:69:13:06:52:eb:da:14:28:c7:32:3f:89:33:5b:2c:90:3b:
         a9:58:e1:fd
-----BEGIN CERTIFICATE-----
MIIDajCCAlICAQIwDQYJKoZIhvcNAQELBQAwgYUxCzAJBgNVBAYTAlVTMQswCQYD
VQQIDAJDQTESMBAGA1UEBwwJU3Vubnl2YWxlMR4wHAYDVQQKDBVSZWFsIFRpbWUg
SW5ub3ZhdGlvbnMxFjAUBgNVBAMMDUNBIENlcnQgV29ybGQxHTAbBgkqhkiG9w0B
CQEWDnNlY3VyZUBydGkuY29tMB4XDTIyMTExMDE0MzgwNVoXDTIzMTExMDE0Mzgw
NVowcDELMAkGA1UEBhMCVVMxCzAJBgNVBAgMAk1BMR4wHAYDVQQKDBVSZWFsIFRp
bWUgSW5ub3ZhdGlvbnMxEjAQBgNVBAMMCXRyaXdyaXRlcjEgMB4GCSqGSIb3DQEJ
ARYRdHJpd3JpdGVyQHJ0aS5jb20wggEiMA0GCSqGSIb3DQEBAQUAA4IBDwAwggEK
AoIBAQDVvCEH6sUdJhBrUv41jBehVnWUSpXmm3n57dsImsRSkJt05HSUmoYB5SXi
kXYUlLx9wg7s7/ulSpOKxH/zUr9tcnafBikXGFSkABenrZSGZzYTrW9xLIj5Iq/I
sSiQ9RPBLHFOsZr3+h8UDaUXz/5jYQktdIquBjRrMJsGs4wBJ/DWjM63zWm2VH+E
qZCRKVwLOvK0gCtqgDdJcQMRGGw5xXmrVLsPBSYc7uR07WwM7WaPTz0R6aSY/F1V
vjHDiL0xJH9U3XsgP/eR5TR8zH2LVDkikQO4B+5+ZNw91+rjikSxtgNvDGe+CqEU
cWSdVdOBaoUF2KFoJ/8Wntz1+vfPAgMBAAEwDQYJKoZIhvcNAQELBQADggEBAIaC
vT80zsyNmCH1FudYekHPBqr01p8MNoCjqEX75VgbXkCjt43FIz1xTnnwOh0jyHgr
kKt1MS9fdHrImZusx87PT59ACzPux0oCV+Ke2ehGOcR1FVyK3TewrvxNLssYTgtq
ROKzM50AHtgQaeA8g6qmCh5sF733Rr8g6b+pOApcpuUsjGpuP8bA5+Ym3l1j4eWb
B7OU0L4wcqbIhSYHzEt644dNXSw0TNbk6WLYo4hxuV+w8RZwqRMkmvK13t3JHvZi
+OecpbzwXxI4Knv7/ojTrET+xR+5MrmmcJD8bivWoFuNUjMsp1qurQ5pEwZS69oU
KMcyP4kzWyyQO6lY4f0=
-----END CERTIFICATE-----
