Certificate:
    Data:
        Version: 1 (0x0)
        Serial Number: 1 (0x1)
    Signature Algorithm: sha256WithRSAEncryption
        Issuer: C=US, ST=CA, L=Sunnyvale, O=Real Time Innovations, CN=CA Cert World/emailAddress=secure@rti.com
        Validity
            Not Before: Jul 17 15:03:13 2020 GMT
            Not After : Jul 17 15:03:13 2021 GMT
        Subject: C=US, ST=MA, O=Real Time Innovations, CN=triwriter/emailAddress=triwriter@rti.com
        Subject Public Key Info:
            Public Key Algorithm: rsaEncryption
                Public-Key: (2048 bit)
                Modulus:
                    00:a6:71:34:32:e6:fc:d5:e4:83:a6:e3:31:7b:59:
                    8f:02:5a:98:60:85:77:81:50:73:01:48:35:8d:19:
                    c7:fa:c3:24:88:64:5f:e9:57:a5:16:c3:ff:13:3f:
                    f6:c0:f3:cd:3b:5a:e3:39:92:5d:08:15:8e:6e:85:
                    d8:8d:2d:25:6d:f1:85:7a:5e:88:88:8c:73:0f:04:
                    77:8f:ee:8c:66:48:f7:a2:29:20:76:ba:21:07:ff:
                    a9:4a:43:65:5d:9a:0f:aa:9a:b4:11:73:4c:96:d5:
                    51:a7:5e:6a:a6:79:6e:41:02:7d:0d:ff:62:dc:13:
                    f8:e5:d1:09:ce:15:e3:c8:66:fd:c8:1e:e3:91:1a:
                    82:af:ea:c4:7b:04:16:29:e9:9c:46:f1:98:0b:ac:
                    af:e8:98:ed:66:9f:52:84:bd:55:fb:f4:74:a3:dc:
                    b6:5a:34:56:53:0b:d4:90:3a:ba:86:2d:13:da:7b:
                    95:97:96:d0:99:4e:da:00:47:bb:9b:c9:9e:86:45:
                    7c:57:ba:ea:47:06:f2:89:f2:60:1c:3f:ee:cd:b6:
                    13:06:54:c6:d7:f3:4a:a4:e5:da:4a:6a:4d:99:c0:
                    9e:86:54:42:bc:1b:99:78:3f:11:ce:8d:79:61:e9:
                    b2:11:a9:6a:5e:51:18:ac:1e:48:1d:6b:e5:67:7d:
                    43:29
                Exponent: 65537 (0x10001)
    Signature Algorithm: sha256WithRSAEncryption
         c0:bb:44:09:77:93:9a:1b:0c:51:c4:23:08:a5:c8:40:58:e8:
         c6:08:0d:00:cb:8e:41:2a:42:95:bf:70:06:22:13:0b:bd:07:
         71:99:33:9b:61:ca:c9:33:a0:1b:de:08:91:4b:55:40:3f:e6:
         48:8c:6d:fd:aa:26:6a:e3:75:c8:67:48:61:da:e3:9f:57:03:
         a5:79:1f:94:bd:96:b5:27:77:d1:c1:87:38:a3:7e:9b:ab:03:
         7f:5a:2b:14:60:b5:06:c1:77:36:13:bb:08:9b:18:ac:cb:6a:
         61:89:04:93:2d:ff:6f:01:0e:ff:a1:22:fe:7e:40:2b:bc:0d:
         53:c3:b6:7c:a6:ce:6e:e1:ef:21:2a:bc:c4:2a:51:90:96:4f:
         fb:4b:22:ad:09:c9:8c:c1:df:2b:78:c0:34:9b:f7:5b:a9:c8:
         a6:54:7b:1e:07:c9:5b:35:dd:75:36:c5:2e:4c:21:4a:cd:2b:
         2f:b1:81:4c:9b:d0:e5:48:a7:0e:23:77:2a:4f:3a:e2:08:15:
         5d:de:8d:08:15:9a:8e:ee:2c:0b:ca:d6:bb:b3:16:17:78:27:
         08:7a:2e:38:fc:6a:66:fe:ca:9c:3a:2d:0c:7d:03:ae:b0:61:
         f1:ec:8f:a1:4d:ff:84:fb:c9:11:bd:d0:b2:13:02:48:e3:42:
         e5:5e:61:30
-----BEGIN CERTIFICATE-----
MIIDajCCAlICAQEwDQYJKoZIhvcNAQELBQAwgYUxCzAJBgNVBAYTAlVTMQswCQYD
VQQIDAJDQTESMBAGA1UEBwwJU3Vubnl2YWxlMR4wHAYDVQQKDBVSZWFsIFRpbWUg
SW5ub3ZhdGlvbnMxFjAUBgNVBAMMDUNBIENlcnQgV29ybGQxHTAbBgkqhkiG9w0B
CQEWDnNlY3VyZUBydGkuY29tMB4XDTIwMDcxNzE1MDMxM1oXDTIxMDcxNzE1MDMx
M1owcDELMAkGA1UEBhMCVVMxCzAJBgNVBAgMAk1BMR4wHAYDVQQKDBVSZWFsIFRp
bWUgSW5ub3ZhdGlvbnMxEjAQBgNVBAMMCXRyaXdyaXRlcjEgMB4GCSqGSIb3DQEJ
ARYRdHJpd3JpdGVyQHJ0aS5jb20wggEiMA0GCSqGSIb3DQEBAQUAA4IBDwAwggEK
AoIBAQCmcTQy5vzV5IOm4zF7WY8CWphghXeBUHMBSDWNGcf6wySIZF/pV6UWw/8T
P/bA8807WuM5kl0IFY5uhdiNLSVt8YV6XoiIjHMPBHeP7oxmSPeiKSB2uiEH/6lK
Q2Vdmg+qmrQRc0yW1VGnXmqmeW5BAn0N/2LcE/jl0QnOFePIZv3IHuORGoKv6sR7
BBYp6ZxG8ZgLrK/omO1mn1KEvVX79HSj3LZaNFZTC9SQOrqGLRPae5WXltCZTtoA
R7ubyZ6GRXxXuupHBvKJ8mAcP+7NthMGVMbX80qk5dpKak2ZwJ6GVEK8G5l4PxHO
jXlh6bIRqWpeURisHkgda+VnfUMpAgMBAAEwDQYJKoZIhvcNAQELBQADggEBAMC7
RAl3k5obDFHEIwilyEBY6MYIDQDLjkEqQpW/cAYiEwu9B3GZM5thyskzoBveCJFL
VUA/5kiMbf2qJmrjdchnSGHa459XA6V5H5S9lrUnd9HBhzijfpurA39aKxRgtQbB
dzYTuwibGKzLamGJBJMt/28BDv+hIv5+QCu8DVPDtnymzm7h7yEqvMQqUZCWT/tL
Iq0JyYzB3yt4wDSb91upyKZUex4HyVs13XU2xS5MIUrNKy+xgUyb0OVIpw4jdypP
OuIIFV3ejQgVmo7uLAvK1ruzFhd4Jwh6Ljj8amb+ypw6LQx9A66wYfHsj6FN/4T7
yRG90LITAkjjQuVeYTA=
-----END CERTIFICATE-----
