Certificate:
    Data:
        Version: 1 (0x0)
        Serial Number: 0 (0x0)
    Signature Algorithm: sha256WithRSAEncryption
        Issuer: C=US, ST=CA, L=Sunnyvale, O=Real Time Innovations, CN=CA Cert World/emailAddress=secure@rti.com
        Validity
            Not Before: Nov 10 14:37:15 2022 GMT
            Not After : Nov 10 14:37:15 2023 GMT
        Subject: C=US, ST=MA, O=Real Time Innovations, CN=tools/emailAddress=tools@rti.com
        Subject Public Key Info:
            Public Key Algorithm: rsaEncryption
                Public-Key: (2048 bit)
                Modulus:
                    00:af:51:28:af:9f:ca:6e:7f:6c:8a:7e:90:f1:7c:
                    ac:1c:8e:7e:a0:12:34:24:ae:bd:d8:d5:fb:17:5f:
                    7b:69:12:00:62:3a:0b:ae:9f:00:d7:7a:25:8f:8f:
                    79:b7:ff:a0:c1:41:31:27:05:50:9e:a0:7c:58:67:
                    69:9a:d5:48:2e:04:1d:1e:bd:7d:5e:62:1c:1e:48:
                    df:ff:6c:8c:34:56:6c:91:b4:72:78:2c:77:0f:5d:
                    98:d1:ae:fd:50:03:ae:64:de:9c:e5:22:de:72:d3:
                    c3:4b:7b:59:5c:05:39:f3:a4:a3:db:a2:22:5e:f4:
                    7d:ce:1e:81:cc:5f:3f:e5:cb:a9:c7:a3:d8:03:94:
                    9a:b3:21:69:25:4a:23:16:f0:cf:6b:48:19:39:70:
                    05:38:31:ed:60:a1:80:c7:17:fa:63:48:34:f0:40:
                    f8:28:b9:16:2f:0d:2a:e9:8e:03:bf:ec:b2:d1:fb:
                    85:78:cd:cc:e1:b4:26:57:18:40:4a:98:9d:37:7a:
                    97:da:e3:bd:1b:fa:c3:52:e9:72:5a:d8:a6:ce:a7:
                    9b:fa:f3:c8:02:b1:87:06:92:db:8f:7d:48:4c:3b:
                    07:c5:e8:25:34:9a:7b:c9:43:5d:a7:6f:89:b3:88:
                    dd:7b:86:94:d8:8e:03:a8:6a:fe:c2:6f:ae:97:47:
                    96:45
                Exponent: 65537 (0x10001)
    Signature Algorithm: sha256WithRSAEncryption
         67:f2:86:5a:c6:cf:5d:51:57:24:a7:38:6f:9d:ca:bb:5c:32:
         e9:42:c0:de:6a:e8:e4:7a:a8:99:1a:12:b0:d1:d0:1a:42:7d:
         c2:b9:ff:08:4a:3b:8d:ef:fa:48:e7:16:c1:c4:53:38:5f:16:
         0e:cf:2a:2b:4f:18:e4:3e:6f:3c:ed:0e:bd:64:39:bd:73:6d:
         db:79:40:a4:84:73:56:34:8b:aa:15:aa:4b:24:b9:a7:20:0d:
         2d:6a:0e:c0:9e:ff:05:4c:ad:5b:13:be:14:4a:c0:d3:ce:20:
         bd:cb:9a:e3:8c:36:2f:61:f2:87:6c:31:f9:eb:f4:4c:8f:74:
         a2:50:88:11:f4:9f:f1:9a:49:14:87:e9:92:c0:b8:b7:a0:c6:
         07:b5:ab:d0:53:e6:27:54:49:53:ea:72:f9:50:c9:de:d8:4e:
         c6:a7:9a:d9:3b:7d:15:07:c3:52:f8:e4:a6:e5:ec:e8:11:72:
         e8:8a:3a:bf:41:67:6f:66:57:1f:11:80:47:d4:b8:e8:75:01:
         7f:c8:d4:03:46:de:55:3f:16:c3:da:a3:e0:d0:9d:1f:2a:50:
         e5:c6:b6:fb:c2:1c:0f:7c:33:ac:78:7d:68:da:19:18:24:b1:
         24:24:39:cf:7c:84:75:fc:73:17:c8:a2:1c:69:95:1f:c7:02:
         63:88:c1:15
-----BEGIN CERTIFICATE-----
MIIDYjCCAkoCAQAwDQYJKoZIhvcNAQELBQAwgYUxCzAJBgNVBAYTAlVTMQswCQYD
VQQIDAJDQTESMBAGA1UEBwwJU3Vubnl2YWxlMR4wHAYDVQQKDBVSZWFsIFRpbWUg
SW5ub3ZhdGlvbnMxFjAUBgNVBAMMDUNBIENlcnQgV29ybGQxHTAbBgkqhkiG9w0B
CQEWDnNlY3VyZUBydGkuY29tMB4XDTIyMTExMDE0MzcxNVoXDTIzMTExMDE0Mzcx
NVowaDELMAkGA1UEBhMCVVMxCzAJBgNVBAgMAk1BMR4wHAYDVQQKDBVSZWFsIFRp
bWUgSW5ub3ZhdGlvbnMxDjAMBgNVBAMMBXRvb2xzMRwwGgYJKoZIhvcNAQkBFg10
b29sc0BydGkuY29tMIIBIjANBgkqhkiG9w0BAQEFAAOCAQ8AMIIBCgKCAQEAr1Eo
r5/Kbn9sin6Q8XysHI5+oBI0JK692NX7F197aRIAYjoLrp8A13olj495t/+gwUEx
JwVQnqB8WGdpmtVILgQdHr19XmIcHkjf/2yMNFZskbRyeCx3D12Y0a79UAOuZN6c
5SLectPDS3tZXAU586Sj26IiXvR9zh6BzF8/5cupx6PYA5SasyFpJUojFvDPa0gZ
OXAFODHtYKGAxxf6Y0g08ED4KLkWLw0q6Y4Dv+yy0fuFeM3M4bQmVxhASpidN3qX
2uO9G/rDUulyWtimzqeb+vPIArGHBpLbj31ITDsHxeglNJp7yUNdp2+Js4jde4aU
2I4DqGr+wm+ul0eWRQIDAQABMA0GCSqGSIb3DQEBCwUAA4IBAQBn8oZaxs9dUVck
pzhvncq7XDLpQsDeaujkeqiZGhKw0dAaQn3Cuf8ISjuN7/pI5xbBxFM4XxYOzyor
TxjkPm887Q69ZDm9c23beUCkhHNWNIuqFapLJLmnIA0tag7Anv8FTK1bE74USsDT
ziC9y5rjjDYvYfKHbDH56/RMj3SiUIgR9J/xmkkUh+mSwLi3oMYHtavQU+YnVElT
6nL5UMne2E7Gp5rZO30VB8NS+OSm5ezoEXLoijq/QWdvZlcfEYBH1LjodQF/yNQD
Rt5VPxbD2qPg0J0fKlDlxrb7whwPfDOseH1o2hkYJLEkJDnPfIR1/HMXyKIcaZUf
xwJjiMEV
-----END CERTIFICATE-----
