Certificate:
    Data:
        Version: 1 (0x0)
        Serial Number: 2 (0x2)
    Signature Algorithm: sha256WithRSAEncryption
        Issuer: C=US, ST=CA, L=Sunnyvale, O=Real Time Innovations, CN=CA Cert World/emailAddress=secure@rti.com
        Validity
            Not Before: Jul 22 20:35:59 2020 GMT
            Not After : Jul 22 20:35:59 2021 GMT
        Subject: C=US, ST=MA, O=Real Time Innovations, CN=tools/emailAddress=tools@rti.com
        Subject Public Key Info:
            Public Key Algorithm: rsaEncryption
                Public-Key: (2048 bit)
                Modulus:
                    00:e1:6e:3d:7f:1e:e6:26:7f:9a:fb:b6:73:1d:f2:
                    6c:df:0b:f9:4e:50:fb:4f:e7:b4:9d:59:ea:cb:9f:
                    ab:2a:95:27:2c:1e:2b:00:a0:3d:2b:0a:4a:50:92:
                    57:ea:af:a0:f4:6b:5b:5c:a3:84:d3:b5:ed:6b:39:
                    3c:d3:de:3d:4b:77:0e:7b:f6:ef:e7:3f:fa:af:78:
                    6b:14:18:3e:cc:58:e8:ea:4b:9f:29:b0:e9:80:5a:
                    72:91:be:a0:e6:0c:26:36:95:df:10:bd:5a:32:5e:
                    b3:a4:21:59:ed:99:56:34:bc:9f:a7:cc:19:03:a5:
                    51:09:2b:cc:fe:ca:47:f5:ba:ad:a3:ca:b6:31:7c:
                    49:8d:7b:45:9f:67:b3:1c:1d:30:b6:36:30:cc:48:
                    79:f8:2b:d1:7f:84:99:4b:ae:25:b9:2b:3c:fe:75:
                    20:87:29:e2:cc:1e:3f:62:43:60:a9:d7:1b:d2:ec:
                    8d:89:9f:b8:1b:a7:65:4b:6d:a5:21:a8:52:e5:ca:
                    df:8b:5c:44:8a:d1:cf:6f:58:3d:71:fa:7b:42:83:
                    04:9e:53:5c:f8:90:f6:9f:fc:f1:49:96:a2:98:97:
                    ce:27:d3:ba:a4:ab:f7:a5:2f:5d:eb:c9:6a:b6:58:
                    73:d6:6a:61:7d:fb:d8:77:b0:60:07:0c:c1:8d:76:
                    48:59
                Exponent: 65537 (0x10001)
    Signature Algorithm: sha256WithRSAEncryption
         78:6e:e3:ce:af:c5:3f:ae:2c:38:8b:0b:91:e5:8c:bc:ed:8e:
         9a:21:97:9b:03:75:62:91:d6:de:ea:1d:13:6b:36:fb:74:44:
         ec:ad:e8:5e:42:ef:45:3a:d7:fa:bf:b5:8c:05:ea:ed:43:9d:
         26:eb:f0:af:2e:7c:f0:45:b3:b0:00:b1:35:57:94:d6:07:16:
         8b:a8:f5:ae:2e:fb:20:9c:54:1e:ff:29:a3:1f:18:ed:16:20:
         fa:a1:75:8d:34:3a:fe:76:05:d0:13:7f:a5:5d:03:e6:17:3c:
         9f:d9:df:1d:a4:4c:66:91:de:23:13:bc:b0:ec:d7:22:8f:35:
         08:6c:70:87:4d:22:6f:75:a3:d9:78:15:76:ee:71:7b:e2:0a:
         e7:a1:fd:d2:49:3f:53:28:38:5c:68:57:cd:30:78:a4:52:02:
         eb:cc:7e:de:7b:b4:b5:79:58:5d:68:ea:6f:f5:6a:b2:bf:d3:
         1f:2d:ba:d4:f4:94:79:e5:b0:11:1c:14:3b:af:80:7e:37:81:
         00:d7:76:97:09:bd:bc:42:5b:61:25:b5:a7:41:e9:ab:07:14:
         f7:8d:43:a8:ca:ef:44:f9:ed:af:8a:e8:ad:14:6c:5c:6b:a1:
         12:7f:82:5f:c3:ad:16:ee:53:cb:0d:ad:7c:dd:c3:b1:92:c7:
         73:51:7a:d0
-----BEGIN CERTIFICATE-----
MIIDYjCCAkoCAQIwDQYJKoZIhvcNAQELBQAwgYUxCzAJBgNVBAYTAlVTMQswCQYD
VQQIDAJDQTESMBAGA1UEBwwJU3Vubnl2YWxlMR4wHAYDVQQKDBVSZWFsIFRpbWUg
SW5ub3ZhdGlvbnMxFjAUBgNVBAMMDUNBIENlcnQgV29ybGQxHTAbBgkqhkiG9w0B
CQEWDnNlY3VyZUBydGkuY29tMB4XDTIwMDcyMjIwMzU1OVoXDTIxMDcyMjIwMzU1
OVowaDELMAkGA1UEBhMCVVMxCzAJBgNVBAgMAk1BMR4wHAYDVQQKDBVSZWFsIFRp
bWUgSW5ub3ZhdGlvbnMxDjAMBgNVBAMMBXRvb2xzMRwwGgYJKoZIhvcNAQkBFg10
b29sc0BydGkuY29tMIIBIjANBgkqhkiG9w0BAQEFAAOCAQ8AMIIBCgKCAQEA4W49
fx7mJn+a+7ZzHfJs3wv5TlD7T+e0nVnqy5+rKpUnLB4rAKA9KwpKUJJX6q+g9Gtb
XKOE07Xtazk80949S3cOe/bv5z/6r3hrFBg+zFjo6kufKbDpgFpykb6g5gwmNpXf
EL1aMl6zpCFZ7ZlWNLyfp8wZA6VRCSvM/spH9bqto8q2MXxJjXtFn2ezHB0wtjYw
zEh5+CvRf4SZS64luSs8/nUghynizB4/YkNgqdcb0uyNiZ+4G6dlS22lIahS5crf
i1xEitHPb1g9cfp7QoMEnlNc+JD2n/zxSZaimJfOJ9O6pKv3pS9d68lqtlhz1mph
ffvYd7BgBwzBjXZIWQIDAQABMA0GCSqGSIb3DQEBCwUAA4IBAQB4buPOr8U/riw4
iwuR5Yy87Y6aIZebA3Vikdbe6h0Tazb7dETsreheQu9FOtf6v7WMBertQ50m6/Cv
LnzwRbOwALE1V5TWBxaLqPWuLvsgnFQe/ymjHxjtFiD6oXWNNDr+dgXQE3+lXQPm
Fzyf2d8dpExmkd4jE7yw7NcijzUIbHCHTSJvdaPZeBV27nF74grnof3SST9TKDhc
aFfNMHikUgLrzH7ee7S1eVhdaOpv9Wqyv9MfLbrU9JR55bARHBQ7r4B+N4EA13aX
Cb28QlthJbWnQemrBxT3jUOoyu9E+e2viuitFGxca6ESf4Jfw60W7lPLDa183cOx
ksdzUXrQ
-----END CERTIFICATE-----
