Certificate:
    Data:
        Version: 1 (0x0)
        Serial Number: 0 (0x0)
    Signature Algorithm: sha256WithRSAEncryption
        Issuer: C=US, ST=CA, L=Sunnyvale, O=Real Time Innovations, CN=CA Cert World/emailAddress=secure@rti.com
        Validity
            Not Before: Jul 17 14:43:57 2020 GMT
            Not After : Jul 17 14:43:57 2021 GMT
        Subject: C=US, ST=MA, O=Real Time Innovations, CN=trireader/emailAddress=trireader@rti.com
        Subject Public Key Info:
            Public Key Algorithm: rsaEncryption
                Public-Key: (2048 bit)
                Modulus:
                    00:ee:0f:e2:b0:28:df:6c:43:d4:fd:3a:79:df:6a:
                    be:b2:b2:0f:68:f9:57:62:7d:e2:00:0f:d0:a5:4c:
                    7d:94:78:26:0d:28:9f:24:50:f8:20:df:d2:0e:50:
                    29:36:33:2c:39:1b:17:3e:bb:15:73:3d:3e:63:9d:
                    fd:e4:90:a5:3c:6f:11:a0:9a:ac:99:03:25:67:8b:
                    1f:f0:9b:3b:05:ca:aa:4e:5e:44:af:8f:29:de:72:
                    3f:8e:cf:05:90:f7:91:b2:1b:9c:27:75:5e:9d:32:
                    75:64:39:7d:80:2c:af:76:81:47:8e:2e:cd:59:14:
                    f8:16:b9:eb:5d:13:dc:b6:e2:bc:72:65:8d:e9:27:
                    c9:9f:a2:6c:59:5d:df:6d:64:2d:76:c1:ea:e0:44:
                    f0:a1:4d:b1:1b:04:9c:65:f8:b8:ab:65:d0:e1:e4:
                    74:4d:c4:9a:c0:e0:c2:25:c4:7e:fe:50:9f:e2:d2:
                    b2:c5:d3:d6:56:a5:60:e4:3b:55:c3:cf:d3:b2:bc:
                    c4:a9:75:37:95:ca:5d:03:74:30:9a:b7:a3:81:6b:
                    f3:d1:02:9e:97:5c:3b:96:c0:e7:ca:d4:6c:71:2f:
                    5c:16:fb:22:58:38:71:7d:85:e2:ff:ce:20:e5:9c:
                    d3:af:b3:c0:e2:78:92:69:08:14:8a:89:f0:b3:7e:
                    2b:a1
                Exponent: 65537 (0x10001)
    Signature Algorithm: sha256WithRSAEncryption
         35:83:bb:ac:80:d2:5d:ad:6c:ce:55:b8:38:44:54:4b:ba:38:
         0f:44:bb:7f:8a:fc:38:89:cd:ff:a4:04:0a:9e:76:4d:1a:2d:
         e8:a7:a8:68:70:2a:2e:bc:17:96:f4:e4:fa:88:6c:67:b6:25:
         2e:b2:00:09:5c:c7:93:7c:9a:a7:94:62:bc:1a:eb:29:4e:c2:
         00:e5:50:55:3b:de:b4:c1:d8:41:b8:c4:d6:63:cc:1b:c6:51:
         8d:e8:33:8d:8d:be:85:4a:87:3a:e3:a3:d8:26:6d:de:17:8a:
         7d:75:f0:e3:22:04:b7:e5:f3:38:24:6a:a6:7b:0b:4b:1a:4b:
         db:8e:41:26:0d:ed:13:4b:db:8d:94:99:31:b9:57:2a:4d:a3:
         68:98:e8:f3:1f:03:c0:7a:cb:47:d5:f1:b7:0c:45:19:17:c6:
         8d:7f:ac:85:2d:22:6e:62:df:29:b6:86:22:b3:30:51:5b:07:
         64:54:54:18:d0:73:1f:26:76:d6:14:22:e6:ed:da:8e:97:0e:
         50:5c:61:e2:25:d1:74:c2:be:0b:c2:ec:73:5e:d8:fa:a7:64:
         9b:f2:c6:13:f1:00:5d:7c:2f:91:19:db:50:a5:d5:06:51:25:
         52:70:83:b8:bd:f8:9c:73:4a:36:0e:35:f9:bb:23:62:97:7d:
         d1:20:3f:51
-----BEGIN CERTIFICATE-----
MIIDajCCAlICAQAwDQYJKoZIhvcNAQELBQAwgYUxCzAJBgNVBAYTAlVTMQswCQYD
VQQIDAJDQTESMBAGA1UEBwwJU3Vubnl2YWxlMR4wHAYDVQQKDBVSZWFsIFRpbWUg
SW5ub3ZhdGlvbnMxFjAUBgNVBAMMDUNBIENlcnQgV29ybGQxHTAbBgkqhkiG9w0B
CQEWDnNlY3VyZUBydGkuY29tMB4XDTIwMDcxNzE0NDM1N1oXDTIxMDcxNzE0NDM1
N1owcDELMAkGA1UEBhMCVVMxCzAJBgNVBAgMAk1BMR4wHAYDVQQKDBVSZWFsIFRp
bWUgSW5ub3ZhdGlvbnMxEjAQBgNVBAMMCXRyaXJlYWRlcjEgMB4GCSqGSIb3DQEJ
ARYRdHJpcmVhZGVyQHJ0aS5jb20wggEiMA0GCSqGSIb3DQEBAQUAA4IBDwAwggEK
AoIBAQDuD+KwKN9sQ9T9Onnfar6ysg9o+VdifeIAD9ClTH2UeCYNKJ8kUPgg39IO
UCk2Myw5Gxc+uxVzPT5jnf3kkKU8bxGgmqyZAyVnix/wmzsFyqpOXkSvjynecj+O
zwWQ95GyG5wndV6dMnVkOX2ALK92gUeOLs1ZFPgWuetdE9y24rxyZY3pJ8mfomxZ
Xd9tZC12wergRPChTbEbBJxl+LirZdDh5HRNxJrA4MIlxH7+UJ/i0rLF09ZWpWDk
O1XDz9OyvMSpdTeVyl0DdDCat6OBa/PRAp6XXDuWwOfK1GxxL1wW+yJYOHF9heL/
ziDlnNOvs8DieJJpCBSKifCzfiuhAgMBAAEwDQYJKoZIhvcNAQELBQADggEBADWD
u6yA0l2tbM5VuDhEVEu6OA9Eu3+K/DiJzf+kBAqedk0aLeinqGhwKi68F5b05PqI
bGe2JS6yAAlcx5N8mqeUYrwa6ylOwgDlUFU73rTB2EG4xNZjzBvGUY3oM42NvoVK
hzrjo9gmbd4Xin118OMiBLfl8zgkaqZ7C0saS9uOQSYN7RNL242UmTG5VypNo2iY
6PMfA8B6y0fV8bcMRRkXxo1/rIUtIm5i3ym2hiKzMFFbB2RUVBjQcx8mdtYUIubt
2o6XDlBcYeIl0XTCvgvC7HNe2PqnZJvyxhPxAF18L5EZ21Cl1QZRJVJwg7i9+Jxz
SjYONfm7I2KXfdEgP1E=
-----END CERTIFICATE-----
