Certificate:
    Data:
        Version: 1 (0x0)
        Serial Number: 1 (0x1)
    Signature Algorithm: sha256WithRSAEncryption
        Issuer: C=US, ST=CA, L=Sunnyvale, O=Real Time Innovations, CN=CA Cert World/emailAddress=secure@rti.com
        Validity
            Not Before: Nov 10 14:37:53 2022 GMT
            Not After : Nov 10 14:37:53 2023 GMT
        Subject: C=US, ST=MA, O=Real Time Innovations, CN=trireader/emailAddress=trireader@rti.com
        Subject Public Key Info:
            Public Key Algorithm: rsaEncryption
                Public-Key: (2048 bit)
                Modulus:
                    00:b5:aa:91:14:01:5a:52:24:67:1c:43:27:3a:61:
                    ab:e1:51:33:0b:f7:3e:61:c7:5d:17:98:ed:ab:93:
                    b1:f8:0a:d3:62:59:cd:97:dd:16:05:c7:ae:35:b9:
                    7e:7d:68:0b:56:f0:1f:a0:3d:46:39:ef:95:57:55:
                    fe:01:da:c5:24:02:41:12:08:68:88:9e:d6:41:8c:
                    f5:06:75:39:7d:3f:f5:5b:2e:ec:22:cd:5c:24:41:
                    c4:b9:6a:14:78:d7:5f:1c:11:70:af:14:d6:04:4e:
                    e3:91:81:2d:3d:3c:65:74:22:1e:00:24:b5:ed:44:
                    20:2e:86:fc:64:c7:46:77:30:1f:11:7a:18:95:88:
                    54:2d:53:ac:1d:b5:e7:9d:77:4a:7a:d8:79:34:91:
                    11:8c:61:b4:e1:d9:34:db:15:d7:3f:63:18:f7:ce:
                    1b:87:19:00:75:82:84:20:71:08:ff:5c:40:dd:cd:
                    2d:c3:e3:3b:01:66:5a:78:06:9d:c7:bd:c3:d7:f5:
                    75:f8:20:da:4b:11:21:7a:b2:03:b5:d5:04:dc:af:
                    f0:06:1c:65:73:fb:68:50:68:49:a6:b3:34:b1:de:
                    d1:0f:64:40:ac:2b:39:80:b4:e5:52:17:71:3c:f4:
                    75:87:e6:cf:7e:ed:12:97:2b:2d:64:4f:15:52:4d:
                    b5:c9
                Exponent: 65537 (0x10001)
    Signature Algorithm: sha256WithRSAEncryption
         06:e3:02:ab:6f:95:67:ca:a9:40:ca:99:31:6d:67:3f:42:9a:
         15:98:3d:da:6d:75:02:52:a6:23:d6:e9:86:4f:de:b6:9c:45:
         18:e1:60:73:57:38:71:98:79:81:8d:d9:54:9c:39:dc:4f:b8:
         1f:48:7a:1d:12:30:7f:d9:15:9d:0d:43:0d:15:44:17:56:ee:
         bc:a9:aa:c5:dc:78:88:28:6c:e7:41:dc:86:4d:ec:3b:85:86:
         6f:bd:d2:3a:5f:cc:9b:5c:d3:98:ce:61:7a:07:c7:9f:25:70:
         48:71:b7:59:cd:7c:63:68:8e:6e:46:77:96:a2:08:05:8b:8c:
         74:d4:d7:62:bf:be:7c:92:ec:4b:92:2d:52:5e:38:a3:a3:a3:
         0b:09:57:30:46:3f:e8:fd:ce:01:53:3f:25:de:e1:e9:d6:22:
         e6:78:57:28:c0:6f:f4:57:38:d7:65:e9:2d:ab:cf:a8:2f:7f:
         a1:1f:67:ae:4f:b6:25:20:e0:17:e3:34:ca:f9:e2:d6:b3:d4:
         94:97:e7:f0:f6:42:a6:7c:25:64:cd:29:ad:98:63:af:5b:5c:
         4a:a3:91:ef:b7:a0:aa:63:da:66:f8:b8:29:9c:54:d3:d3:2f:
         9f:bc:e5:8c:82:4d:a8:7f:05:eb:cc:0c:85:9a:64:80:93:ea:
         fd:ce:d5:af
-----BEGIN CERTIFICATE-----
MIIDajCCAlICAQEwDQYJKoZIhvcNAQELBQAwgYUxCzAJBgNVBAYTAlVTMQswCQYD
VQQIDAJDQTESMBAGA1UEBwwJU3Vubnl2YWxlMR4wHAYDVQQKDBVSZWFsIFRpbWUg
SW5ub3ZhdGlvbnMxFjAUBgNVBAMMDUNBIENlcnQgV29ybGQxHTAbBgkqhkiG9w0B
CQEWDnNlY3VyZUBydGkuY29tMB4XDTIyMTExMDE0Mzc1M1oXDTIzMTExMDE0Mzc1
M1owcDELMAkGA1UEBhMCVVMxCzAJBgNVBAgMAk1BMR4wHAYDVQQKDBVSZWFsIFRp
bWUgSW5ub3ZhdGlvbnMxEjAQBgNVBAMMCXRyaXJlYWRlcjEgMB4GCSqGSIb3DQEJ
ARYRdHJpcmVhZGVyQHJ0aS5jb20wggEiMA0GCSqGSIb3DQEBAQUAA4IBDwAwggEK
AoIBAQC1qpEUAVpSJGccQyc6YavhUTML9z5hx10XmO2rk7H4CtNiWc2X3RYFx641
uX59aAtW8B+gPUY575VXVf4B2sUkAkESCGiIntZBjPUGdTl9P/VbLuwizVwkQcS5
ahR4118cEXCvFNYETuORgS09PGV0Ih4AJLXtRCAuhvxkx0Z3MB8RehiViFQtU6wd
teedd0p62Hk0kRGMYbTh2TTbFdc/Yxj3zhuHGQB1goQgcQj/XEDdzS3D4zsBZlp4
Bp3HvcPX9XX4INpLESF6sgO11QTcr/AGHGVz+2hQaEmmszSx3tEPZECsKzmAtOVS
F3E89HWH5s9+7RKXKy1kTxVSTbXJAgMBAAEwDQYJKoZIhvcNAQELBQADggEBAAbj
AqtvlWfKqUDKmTFtZz9CmhWYPdptdQJSpiPW6YZP3racRRjhYHNXOHGYeYGN2VSc
OdxPuB9Ieh0SMH/ZFZ0NQw0VRBdW7rypqsXceIgobOdB3IZN7DuFhm+90jpfzJtc
05jOYXoHx58lcEhxt1nNfGNojm5Gd5aiCAWLjHTU12K/vnyS7EuSLVJeOKOjowsJ
VzBGP+j9zgFTPyXe4enWIuZ4VyjAb/RXONdl6S2rz6gvf6EfZ65PtiUg4BfjNMr5
4taz1JSX5/D2QqZ8JWTNKa2YY69bXEqjke+3oKpj2mb4uCmcVNPTL5+85YyCTah/
BevMDIWaZICT6v3O1a8=
-----END CERTIFICATE-----
